; Function Attrs: mustprogress nofree norecurse nosync nounwind willreturn memory(read, inaccessiblemem: none) uwtable
define dso_local noundef nonnull align 8 dereferenceable(32) ptr @_ZNK15cmStateSnapshot20GetExecutionListFileB5cxx11Ev(ptr noundef nonnull readonly align 8 captures(none) dereferenceable(24) %0) local_unnamed_addr #6 align 2 {
  %2 = getelementptr inbounds nuw i8, ptr %0, i64 8
  %3 = load ptr, ptr %2, align 8
  %4 = getelementptr inbounds nuw i8, ptr %0, i64 16
  %5 = load i64, ptr %4, align 8
  %6 = load ptr, ptr %3, align 8
  %7 = getelementptr %"struct.cmStateDetail::SnapshotDataType", ptr %6, i64 %5
  %8 = getelementptr i8, ptr %7, i64 -120
  %9 = load ptr, ptr %8, align 8
  %10 = getelementptr i8, ptr %7, i64 -112
  %11 = load i64, ptr %10, align 8
  %12 = load ptr, ptr %9, align 8
  %13 = getelementptr %"class.std::__cxx11::basic_string", ptr %12, i64 %11
  %14 = getelementptr i8, ptr %13, i64 -32
  ret ptr %14
}